; Function Attrs: mustprogress uwtable
define hidden void @_ZN4cvc58internal7Minisat6Solver8toDimacsEPKcRKNS1_3vecINS1_3LitEEE(ptr noundef nonnull readonly align 8 captures(none) dereferenceable(850) %0, ptr noundef %1, ptr noundef nonnull readnone align 8 captures(none) dereferenceable(16) %2) local_unnamed_addr #5 align 2 {
  %4 = tail call noalias ptr @fopen(ptr noundef %1, ptr noundef nonnull @.str.113)
  %5 = icmp eq ptr %4, null
  br i1 %5, label %6, label %9

6:                                                ; preds = %3
  %7 = load ptr, ptr @stderr, align 8, !tbaa !469
  %8 = tail call i32 (ptr, ptr, ...) @fprintf(ptr noundef %7, ptr noundef nonnull @.str.114, ptr noundef %1) #40
  tail call void @exit(i32 noundef 1) #41
  unreachable

9:                                                ; preds = %3
  tail call void @_ZN4cvc58internal7Minisat6Solver8toDimacsEP8_IO_FILERKNS1_3vecINS1_3LitEEE(ptr noundef nonnull align 8 dereferenceable(850) %0, ptr noundef nonnull %4, ptr nonnull align 8 poison)
  %10 = tail call i32 @fclose(ptr noundef nonnull %4)
  ret void
}